target datalayout = "e-m:e-p270:32:32-p271:32:32-p272:64:64-i64:64-i128:128-f80:128-n8:16:32:64-S128"
target triple = "x86_64-pc-linux-gnu"

%struct._lv_lru_rb_t = type { %struct._lv_cache_t, %struct._lv_rb_t, %struct.lv_ll_t, ptr }
%struct._lv_cache_t = type { ptr, i32, i32, i32, %struct._lv_cache_ops_t, i32, ptr }
%struct._lv_cache_ops_t = type { ptr, ptr, ptr }
%struct._lv_rb_t = type { ptr, ptr, i64 }
%struct.lv_ll_t = type { i32, ptr, ptr }
%struct._lv_rb_node_t = type { ptr, ptr, ptr, i32, ptr }

; Function Attrs: inlinehint nounwind uwtable
define internal ptr @get_lru_node(ptr noundef %0, ptr noundef %1) #3 {
  %3 = alloca ptr, align 8
  %4 = alloca ptr, align 8
  store ptr %0, ptr %3, align 8, !tbaa !3
  store ptr %1, ptr %4, align 8, !tbaa !3
  %5 = load ptr, ptr %4, align 8, !tbaa !3
  %6 = getelementptr inbounds nuw %struct._lv_rb_node_t, ptr %5, i32 0, i32 4
  %7 = load ptr, ptr %6, align 8, !tbaa !21
  %8 = load ptr, ptr %3, align 8, !tbaa !3
  %9 = getelementptr inbounds nuw %struct._lv_lru_rb_t, ptr %8, i32 0, i32 1
  %10 = getelementptr inbounds nuw %struct._lv_rb_t, ptr %9, i32 0, i32 2
  %11 = load i64, ptr %10, align 8, !tbaa !33
  %12 = getelementptr inbounds nuw i8, ptr %7, i64 %11
  %13 = getelementptr inbounds i8, ptr %12, i64 -8
  ret ptr %13
}

; Function Attrs: nounwind uwtable
define internal void @remove_cb(ptr noundef %0, ptr noundef %1, ptr noundef %2) #0 {
  %4 = alloca ptr, align 8
  %5 = alloca ptr, align 8
  %6 = alloca ptr, align 8
  %7 = alloca ptr, align 8
  %8 = alloca i32, align 4
  %9 = alloca ptr, align 8
  %10 = alloca ptr, align 8
  %11 = alloca ptr, align 8
  store ptr %0, ptr %4, align 8, !tbaa !3
  store ptr %1, ptr %5, align 8, !tbaa !3
  store ptr %2, ptr %6, align 8, !tbaa !3
  call void @llvm.lifetime.start.p0(i64 8, ptr %7) #4
  %12 = load ptr, ptr %4, align 8, !tbaa !3
  store ptr %12, ptr %7, align 8, !tbaa !3
  br label %13

13:                                               ; preds = %3
  %14 = load ptr, ptr %7, align 8, !tbaa !3
  %15 = icmp ne ptr %14, null
  br i1 %15, label %22, label %16

16:                                               ; preds = %13
  br label %17

17:                                               ; preds = %16
  br label %18

18:                                               ; preds = %17
  br label %19

19:                                               ; preds = %18
  br label %20

20:                                               ; preds = %21, %19
  br label %21

21:                                               ; preds = %20
  br label %20

22:                                               ; preds = %13
  br label %23

23:                                               ; preds = %22
  br label %24

24:                                               ; preds = %23
  br label %25

25:                                               ; preds = %24
  %26 = load ptr, ptr %5, align 8, !tbaa !3
  %27 = icmp ne ptr %26, null
  br i1 %27, label %34, label %28

28:                                               ; preds = %25
  br label %29

29:                                               ; preds = %28
  br label %30

30:                                               ; preds = %29
  br label %31

31:                                               ; preds = %30
  br label %32

32:                                               ; preds = %33, %31
  br label %33

33:                                               ; preds = %32
  br label %32

34:                                               ; preds = %25
  br label %35

35:                                               ; preds = %34
  br label %36

36:                                               ; preds = %35
  %37 = load ptr, ptr %7, align 8, !tbaa !3
  %38 = icmp eq ptr %37, null
  br i1 %38, label %42, label %39

39:                                               ; preds = %36
  %40 = load ptr, ptr %5, align 8, !tbaa !3
  %41 = icmp eq ptr %40, null
  br i1 %41, label %42, label %43

42:                                               ; preds = %39, %36
  store i32 1, ptr %8, align 4
  br label %76

43:                                               ; preds = %39
  call void @llvm.lifetime.start.p0(i64 8, ptr %9) #4
  %44 = load ptr, ptr %5, align 8, !tbaa !3
  %45 = call ptr @lv_cache_entry_get_data(ptr noundef %44)
  store ptr %45, ptr %9, align 8, !tbaa !3
  call void @llvm.lifetime.start.p0(i64 8, ptr %10) #4
  %46 = load ptr, ptr %7, align 8, !tbaa !3
  %47 = getelementptr inbounds nuw %struct._lv_lru_rb_t, ptr %46, i32 0, i32 1
  %48 = load ptr, ptr %9, align 8, !tbaa !3
  %49 = call ptr @lv_rb_find(ptr noundef %47, ptr noundef %48)
  store ptr %49, ptr %10, align 8, !tbaa !3
  %50 = load ptr, ptr %10, align 8, !tbaa !3
  %51 = icmp eq ptr %50, null
  br i1 %51, label %52, label %53

52:                                               ; preds = %43
  store i32 1, ptr %8, align 4
  br label %75

53:                                               ; preds = %43
  call void @llvm.lifetime.start.p0(i64 8, ptr %11) #4
  %54 = load ptr, ptr %7, align 8, !tbaa !3
  %55 = load ptr, ptr %10, align 8, !tbaa !3
  %56 = call ptr @get_lru_node(ptr noundef %54, ptr noundef %55)
  %57 = load ptr, ptr %56, align 8, !tbaa !3
  store ptr %57, ptr %11, align 8, !tbaa !3
  %58 = load ptr, ptr %7, align 8, !tbaa !3
  %59 = getelementptr inbounds nuw %struct._lv_lru_rb_t, ptr %58, i32 0, i32 1
  %60 = load ptr, ptr %10, align 8, !tbaa !3
  %61 = call ptr @lv_rb_remove_node(ptr noundef %59, ptr noundef %60)
  %62 = load ptr, ptr %7, align 8, !tbaa !3
  %63 = getelementptr inbounds nuw %struct._lv_lru_rb_t, ptr %62, i32 0, i32 2
  %64 = load ptr, ptr %11, align 8, !tbaa !3
  call void @lv_ll_remove(ptr noundef %63, ptr noundef %64)
  %65 = load ptr, ptr %11, align 8, !tbaa !3
  call void @lv_free(ptr noundef %65)
  %66 = load ptr, ptr %7, align 8, !tbaa !3
  %67 = getelementptr inbounds nuw %struct._lv_lru_rb_t, ptr %66, i32 0, i32 3
  %68 = load ptr, ptr %67, align 8, !tbaa !17
  %69 = load ptr, ptr %9, align 8, !tbaa !3
  %70 = call i32 %68(ptr noundef %69)
  %71 = load ptr, ptr %4, align 8, !tbaa !3
  %72 = getelementptr inbounds nuw %struct._lv_cache_t, ptr %71, i32 0, i32 3
  %73 = load i32, ptr %72, align 8, !tbaa !24
  %74 = sub i32 %73, %70
  store i32 %74, ptr %72, align 8, !tbaa !24
  call void @llvm.lifetime.end.p0(i64 8, ptr %11) #4
  store i32 0, ptr %8, align 4
  br label %75

75:                                               ; preds = %53, %52
  call void @llvm.lifetime.end.p0(i64 8, ptr %10) #4
  call void @llvm.lifetime.end.p0(i64 8, ptr %9) #4
  br label %76

76:                                               ; preds = %75, %42
  call void @llvm.lifetime.end.p0(i64 8, ptr %7) #4
  %77 = load i32, ptr %8, align 4
  switch i32 %77, label %79 [
    i32 0, label %78
    i32 1, label %78
  ]

78:                                               ; preds = %76, %76
  ret void

79:                                               ; preds = %76
  unreachable
}