; Function Attrs: nounwind uwtable
define internal void @remove_cb(ptr noundef %0, ptr noundef %1, ptr nocapture readnone %2) #0 {
  %.not = icmp eq ptr %0, null
  br i1 %.not, label %.preheader, label %4

.preheader:                                       ; preds = %3, %.preheader
  br label %.preheader

4:                                                ; preds = %3
  %.not22 = icmp eq ptr %1, null
  br i1 %.not22, label %.preheader24, label %5

.preheader24:                                     ; preds = %4, %.preheader24
  br label %.preheader24

5:                                                ; preds = %4
  %6 = tail call ptr @lv_cache_entry_get_data(ptr noundef nonnull %1) #5
  %7 = getelementptr inbounds nuw i8, ptr %0, i64 64
  %8 = tail call ptr @lv_rb_find(ptr noundef nonnull %7, ptr noundef %6) #5
  %9 = icmp eq ptr %8, null
  br i1 %9, label %24, label %10

10:                                               ; preds = %5
  %11 = getelementptr i8, ptr %0, i64 80
  %.val = load i64, ptr %11, align 8, !tbaa !24
  %12 = getelementptr i8, ptr %8, i64 32
  %.val23 = load ptr, ptr %12, align 8, !tbaa !21
  %13 = getelementptr inbounds nuw i8, ptr %.val23, i64 %.val
  %14 = getelementptr inbounds i8, ptr %13, i64 -8
  %15 = load ptr, ptr %14, align 8, !tbaa !20
  %16 = tail call ptr @lv_rb_remove_node(ptr noundef nonnull %7, ptr noundef nonnull %8) #5
  %17 = getelementptr inbounds nuw i8, ptr %0, i64 88
  tail call void @lv_ll_remove(ptr noundef nonnull %17, ptr noundef %15) #5
  tail call void @lv_free(ptr noundef %15) #5
  %18 = getelementptr inbounds nuw i8, ptr %0, i64 112
  %19 = load ptr, ptr %18, align 8, !tbaa !16
  %20 = tail call i32 %19(ptr noundef %6) #5
  %21 = getelementptr inbounds nuw i8, ptr %0, i64 16
  %22 = load i32, ptr %21, align 8, !tbaa !25
  %23 = sub i32 %22, %20
  store i32 %23, ptr %21, align 8, !tbaa !25
  br label %24

24:                                               ; preds = %10, %5
  ret void
}